target datalayout = "e-m:e-p270:32:32-p271:32:32-p272:64:64-i64:64-i128:128-f80:128-n8:16:32:64-S128"
target triple = "x86_64-pc-linux-gnu"

%class.btTypedConstraint = type { ptr, %struct.btTypedObject, i32, %union.anon.0, float, i8, i8, i32, ptr, ptr, float, float, ptr }
%struct.btTypedObject = type { i32 }
%union.anon.0 = type { ptr }
%class.btTransform = type { %class.btMatrix3x3, %class.btVector3 }
%class.btMatrix3x3 = type { [3 x %class.btVector3] }
%class.btVector3 = type { [4 x float] }
%class.btCollisionObject = type <{ ptr, %class.btTransform, %class.btTransform, %class.btVector3, %class.btVector3, %class.btVector3, i32, float, ptr, ptr, ptr, ptr, i32, i32, i32, i32, i32, float, float, float, float, float, float, float, i32, [4 x i8], ptr, i32, i32, i32, float, float, float, i32, [4 x i8], %class.btAlignedObjectArray, i32, %class.btVector3, [4 x i8] }>
%class.btAlignedObjectArray = type <{ [4 x i8], i32, i32, [4 x i8], ptr, i8, [7 x i8] }>

; Function Attrs: mustprogress nounwind uwtable
define linkonce_odr dso_local noundef nonnull align 4 dereferenceable(64) ptr @_ZNK11btRigidBody24getCenterOfMassTransformEv(ptr noundef nonnull align 8 dereferenceable(744) %0) #1 comdat align 2 {
  %2 = alloca ptr, align 8
  store ptr %0, ptr %2, align 8, !tbaa !14
  %3 = load ptr, ptr %2, align 8
  %4 = getelementptr inbounds nuw %class.btCollisionObject, ptr %3, i32 0, i32 1
  ret ptr %4
}

; Function Attrs: mustprogress uwtable
define dso_local void @_ZN23btGeneric6DofConstraint19calculateTransformsEv(ptr noundef nonnull align 8 dereferenceable(1333) %0) #2 align 2 {
  %2 = alloca ptr, align 8
  store ptr %0, ptr %2, align 8, !tbaa !12
  %3 = load ptr, ptr %2, align 8
  %4 = getelementptr inbounds nuw %class.btTypedConstraint, ptr %3, i32 0, i32 8
  %5 = load ptr, ptr %4, align 8, !tbaa !68
  %6 = call noundef nonnull align 4 dereferenceable(64) ptr @_ZNK11btRigidBody24getCenterOfMassTransformEv(ptr noundef nonnull align 8 dereferenceable(744) %5)
  %7 = getelementptr inbounds nuw %class.btTypedConstraint, ptr %3, i32 0, i32 9
  %8 = load ptr, ptr %7, align 8, !tbaa !69
  %9 = call noundef nonnull align 4 dereferenceable(64) ptr @_ZNK11btRigidBody24getCenterOfMassTransformEv(ptr noundef nonnull align 8 dereferenceable(744) %8)
  call void @_ZN23btGeneric6DofConstraint19calculateTransformsERK11btTransformS2_(ptr noundef nonnull align 8 dereferenceable(1333) %3, ptr noundef nonnull align 4 dereferenceable(64) %6, ptr noundef nonnull align 4 dereferenceable(64) %9)
  ret void
}