; Function Attrs: mustprogress nofree nounwind memory(readwrite, inaccessiblemem: write) uwtable
define dso_local void @_ZN23btGeneric6DofConstraint19calculateTransformsEv(ptr noundef nonnull align 8 captures(none) dereferenceable(1333) initializes((1088, 1216), (1280, 1296)) %0) local_unnamed_addr #2 align 2 {
  %2 = getelementptr inbounds nuw i8, ptr %0, i64 40
  %3 = load ptr, ptr %2, align 8, !tbaa !48
  %4 = getelementptr inbounds nuw i8, ptr %3, i64 8
  %5 = getelementptr inbounds nuw i8, ptr %0, i64 48
  %6 = load ptr, ptr %5, align 8, !tbaa !49
  %7 = getelementptr inbounds nuw i8, ptr %6, i64 8
  tail call void @_ZN23btGeneric6DofConstraint19calculateTransformsERK11btTransformS2_(ptr noundef nonnull align 8 dereferenceable(1333) %0, ptr noundef nonnull align 4 dereferenceable(64) %4, ptr noundef nonnull align 4 dereferenceable(64) %7)
  ret void
}